target datalayout = "e-m:e-p270:32:32-p271:32:32-p272:64:64-i64:64-i128:128-f80:128-n8:16:32:64-S128"
target triple = "x86_64-pc-linux-gnu"

%struct.Cec_ParCec_t_ = type { i32, i32, i32, i32, i32, i32, i32, i32, i32 }

@__const.Abc_ExactTestSingleOutputAIG.pTruth = private unnamed_addr constant [4 x i64] [i64 51966, i64 0, i64 0, i64 0], align 16
@__const.Abc_ExactTestSingleOutputAIG.pArrTimeProfile = private unnamed_addr constant [4 x i32] [i32 6, i32 2, i32 8, i32 5], align 16

; Function Attrs: nounwind uwtable
define ptr @Abc_NtkFromTruthTable(ptr noundef %0, i32 noundef %1) #0 {
  %3 = alloca ptr, align 8
  %4 = alloca i32, align 4
  %5 = alloca ptr, align 8
  %6 = alloca ptr, align 8
  %7 = alloca ptr, align 8
  store ptr %0, ptr %3, align 8, !tbaa !8
  store i32 %1, ptr %4, align 4, !tbaa !10
  call void @llvm.lifetime.start.p0(i64 8, ptr %5) #14
  call void @llvm.lifetime.start.p0(i64 8, ptr %6) #14
  call void @llvm.lifetime.start.p0(i64 8, ptr %7) #14
  %8 = call ptr (...) @Mem_FlexStart()
  store ptr %8, ptr %6, align 8, !tbaa !147
  %9 = load ptr, ptr %6, align 8, !tbaa !147
  %10 = load i32, ptr %4, align 4, !tbaa !10
  %11 = load ptr, ptr %3, align 8, !tbaa !8
  %12 = call ptr @Abc_SopCreateFromTruth(ptr noundef %9, i32 noundef %10, ptr noundef %11)
  store ptr %12, ptr %7, align 8, !tbaa !14
  %13 = load ptr, ptr %7, align 8, !tbaa !14
  %14 = call ptr @Abc_NtkCreateWithNode(ptr noundef %13)
  store ptr %14, ptr %5, align 8, !tbaa !64
  %15 = load ptr, ptr %5, align 8, !tbaa !64
  call void @Abc_NtkShortNames(ptr noundef %15)
  %16 = load ptr, ptr %6, align 8, !tbaa !147
  call void @Mem_FlexStop(ptr noundef %16, i32 noundef 0)
  %17 = load ptr, ptr %5, align 8, !tbaa !64
  call void @llvm.lifetime.end.p0(i64 8, ptr %7) #14
  call void @llvm.lifetime.end.p0(i64 8, ptr %6) #14
  call void @llvm.lifetime.end.p0(i64 8, ptr %5) #14
  ret ptr %17
}

; Function Attrs: nounwind uwtable
define void @Abc_ExactTestSingleOutputAIG(i32 noundef %0) #0 {
  %2 = alloca i32, align 4
  %3 = alloca [4 x i64], align 16
  %4 = alloca ptr, align 8
  %5 = alloca ptr, align 8
  %6 = alloca ptr, align 8
  %7 = alloca ptr, align 8
  %8 = alloca ptr, align 8
  %9 = alloca ptr, align 8
  %10 = alloca %struct.Cec_ParCec_t_, align 4
  %11 = alloca ptr, align 8
  %12 = alloca [4 x i32], align 16
  store i32 %0, ptr %2, align 4, !tbaa !10
  call void @llvm.lifetime.start.p0(i64 32, ptr %3) #14
  call void @llvm.memcpy.p0.p0.i64(ptr align 16 %3, ptr align 16 @__const.Abc_ExactTestSingleOutputAIG.pTruth, i64 32, i1 false)
  call void @llvm.lifetime.start.p0(i64 8, ptr %4) #14
  call void @llvm.lifetime.start.p0(i64 8, ptr %5) #14
  call void @llvm.lifetime.start.p0(i64 8, ptr %6) #14
  call void @llvm.lifetime.start.p0(i64 8, ptr %7) #14
  call void @llvm.lifetime.start.p0(i64 8, ptr %8) #14
  call void @llvm.lifetime.start.p0(i64 8, ptr %9) #14
  call void @llvm.lifetime.start.p0(i64 36, ptr %10) #14
  call void @llvm.lifetime.start.p0(i64 8, ptr %11) #14
  store ptr %10, ptr %11, align 8, !tbaa !149
  call void @llvm.lifetime.start.p0(i64 16, ptr %12) #14
  call void @llvm.memcpy.p0.p0.i64(ptr align 16 %12, ptr align 16 @__const.Abc_ExactTestSingleOutputAIG.pArrTimeProfile, i64 16, i1 false)
  %13 = load ptr, ptr %11, align 8, !tbaa !149
  call void @Cec_ManCecSetDefaultParams(ptr noundef %13)
  %14 = getelementptr inbounds [4 x i64], ptr %3, i64 0, i64 0
  %15 = call ptr @Abc_NtkFromTruthTable(ptr noundef %14, i32 noundef 4)
  store ptr %15, ptr %4, align 8, !tbaa !64
  %16 = load ptr, ptr %4, align 8, !tbaa !64
  %17 = call i32 @Abc_NtkToAig(ptr noundef %16)
  %18 = load ptr, ptr %4, align 8, !tbaa !64
  %19 = call ptr @Abc_NtkAigToGia(ptr noundef %18, i32 noundef 1)
  store ptr %19, ptr %5, align 8, !tbaa !127
  %20 = getelementptr inbounds [4 x i64], ptr %3, i64 0, i64 0
  %21 = load i32, ptr %2, align 4, !tbaa !10
  %22 = call ptr @Gia_ManFindExact(ptr noundef %20, i32 noundef 4, i32 noundef 1, i32 noundef -1, ptr noundef null, i32 noundef 0, i32 noundef 0, i32 noundef %21)
  store ptr %22, ptr %6, align 8, !tbaa !127
  %23 = load ptr, ptr %5, align 8, !tbaa !127
  %24 = load ptr, ptr %6, align 8, !tbaa !127
  %25 = call ptr @Gia_ManMiter(ptr noundef %23, ptr noundef %24, i32 noundef 0, i32 noundef 1, i32 noundef 0, i32 noundef 0, i32 noundef 1)
  store ptr %25, ptr %9, align 8, !tbaa !127
  %26 = load ptr, ptr %9, align 8, !tbaa !127
  %27 = load ptr, ptr %11, align 8, !tbaa !149
  %28 = call i32 @Cec_ManVerify(ptr noundef %26, ptr noundef %27)
  %29 = load ptr, ptr %9, align 8, !tbaa !127
  call void @Gia_ManStop(ptr noundef %29)
  %30 = getelementptr inbounds [4 x i64], ptr %3, i64 0, i64 0
  %31 = load i32, ptr %2, align 4, !tbaa !10
  %32 = call ptr @Gia_ManFindExact(ptr noundef %30, i32 noundef 4, i32 noundef 1, i32 noundef 3, ptr noundef null, i32 noundef 0, i32 noundef 0, i32 noundef %31)
  store ptr %32, ptr %7, align 8, !tbaa !127
  %33 = load ptr, ptr %5, align 8, !tbaa !127
  %34 = load ptr, ptr %7, align 8, !tbaa !127
  %35 = call ptr @Gia_ManMiter(ptr noundef %33, ptr noundef %34, i32 noundef 0, i32 noundef 1, i32 noundef 0, i32 noundef 0, i32 noundef 1)
  store ptr %35, ptr %9, align 8, !tbaa !127
  %36 = load ptr, ptr %9, align 8, !tbaa !127
  %37 = load ptr, ptr %11, align 8, !tbaa !149
  %38 = call i32 @Cec_ManVerify(ptr noundef %36, ptr noundef %37)
  %39 = load ptr, ptr %9, align 8, !tbaa !127
  call void @Gia_ManStop(ptr noundef %39)
  %40 = getelementptr inbounds [4 x i64], ptr %3, i64 0, i64 0
  %41 = getelementptr inbounds [4 x i32], ptr %12, i64 0, i64 0
  %42 = load i32, ptr %2, align 4, !tbaa !10
  %43 = call ptr @Gia_ManFindExact(ptr noundef %40, i32 noundef 4, i32 noundef 1, i32 noundef 9, ptr noundef %41, i32 noundef 50000, i32 noundef 0, i32 noundef %42)
  store ptr %43, ptr %8, align 8, !tbaa !127
  %44 = load ptr, ptr %5, align 8, !tbaa !127
  %45 = load ptr, ptr %8, align 8, !tbaa !127
  %46 = call ptr @Gia_ManMiter(ptr noundef %44, ptr noundef %45, i32 noundef 0, i32 noundef 1, i32 noundef 0, i32 noundef 0, i32 noundef 1)
  store ptr %46, ptr %9, align 8, !tbaa !127
  %47 = load ptr, ptr %9, align 8, !tbaa !127
  %48 = load ptr, ptr %11, align 8, !tbaa !149
  %49 = call i32 @Cec_ManVerify(ptr noundef %47, ptr noundef %48)
  %50 = load ptr, ptr %9, align 8, !tbaa !127
  call void @Gia_ManStop(ptr noundef %50)
  %51 = load ptr, ptr %5, align 8, !tbaa !127
  call void @Gia_ManStop(ptr noundef %51)
  %52 = load ptr, ptr %6, align 8, !tbaa !127
  call void @Gia_ManStop(ptr noundef %52)
  %53 = load ptr, ptr %7, align 8, !tbaa !127
  call void @Gia_ManStop(ptr noundef %53)
  %54 = load ptr, ptr %8, align 8, !tbaa !127
  call void @Gia_ManStop(ptr noundef %54)
  call void @llvm.lifetime.end.p0(i64 16, ptr %12) #14
  call void @llvm.lifetime.end.p0(i64 8, ptr %11) #14
  call void @llvm.lifetime.end.p0(i64 36, ptr %10) #14
  call void @llvm.lifetime.end.p0(i64 8, ptr %9) #14
  call void @llvm.lifetime.end.p0(i64 8, ptr %8) #14
  call void @llvm.lifetime.end.p0(i64 8, ptr %7) #14
  call void @llvm.lifetime.end.p0(i64 8, ptr %6) #14
  call void @llvm.lifetime.end.p0(i64 8, ptr %5) #14
  call void @llvm.lifetime.end.p0(i64 8, ptr %4) #14
  call void @llvm.lifetime.end.p0(i64 32, ptr %3) #14
  ret void
}