; Function Attrs: nounwind uwtable
define void @Abc_ExactTestSingleOutputAIG(i32 noundef %0) local_unnamed_addr #0 {
  %2 = alloca [4 x i64], align 16
  %3 = alloca %struct.Cec_ParCec_t_, align 4
  %4 = alloca [4 x i32], align 16
  call void @llvm.lifetime.start.p0(i64 32, ptr nonnull %2) #29
  call void @llvm.memcpy.p0.p0.i64(ptr noundef nonnull align 16 dereferenceable(32) %2, ptr noundef nonnull align 16 dereferenceable(32) @__const.Abc_ExactTestSingleOutputAIG.pTruth, i64 32, i1 false)
  call void @llvm.lifetime.start.p0(i64 36, ptr nonnull %3) #29
  call void @llvm.lifetime.start.p0(i64 16, ptr nonnull %4) #29
  call void @llvm.memcpy.p0.p0.i64(ptr noundef nonnull align 16 dereferenceable(16) %4, ptr noundef nonnull align 16 dereferenceable(16) @__const.Abc_ExactTestSingleOutputAIG.pArrTimeProfile, i64 16, i1 false)
  call void @Cec_ManCecSetDefaultParams(ptr noundef nonnull %3) #29
  %5 = call ptr (...) @Mem_FlexStart() #29
  %6 = call ptr @Abc_SopCreateFromTruth(ptr noundef %5, i32 noundef 4, ptr noundef nonnull %2) #29
  %7 = call ptr @Abc_NtkCreateWithNode(ptr noundef %6) #29
  call void @Abc_NtkShortNames(ptr noundef %7) #29
  call void @Mem_FlexStop(ptr noundef %5, i32 noundef 0) #29
  %8 = call i32 @Abc_NtkToAig(ptr noundef %7) #29
  %9 = call ptr @Abc_NtkAigToGia(ptr noundef %7, i32 noundef 1) #29
  %10 = call ptr @Gia_ManFindExact(ptr noundef nonnull %2, i32 noundef 4, i32 noundef 1, i32 noundef -1, ptr noundef null, i32 noundef 0, i32 noundef 0, i32 noundef %0)
  %11 = call ptr @Gia_ManMiter(ptr noundef %9, ptr noundef %10, i32 noundef 0, i32 noundef 1, i32 noundef 0, i32 noundef 0, i32 noundef 1) #29
  %12 = call i32 @Cec_ManVerify(ptr noundef %11, ptr noundef nonnull %3) #29
  call void @Gia_ManStop(ptr noundef %11) #29
  %13 = call ptr @Gia_ManFindExact(ptr noundef nonnull %2, i32 noundef 4, i32 noundef 1, i32 noundef 3, ptr noundef null, i32 noundef 0, i32 noundef 0, i32 noundef %0)
  %14 = call ptr @Gia_ManMiter(ptr noundef %9, ptr noundef %13, i32 noundef 0, i32 noundef 1, i32 noundef 0, i32 noundef 0, i32 noundef 1) #29
  %15 = call i32 @Cec_ManVerify(ptr noundef %14, ptr noundef nonnull %3) #29
  call void @Gia_ManStop(ptr noundef %14) #29
  %16 = call ptr @Gia_ManFindExact(ptr noundef nonnull %2, i32 noundef 4, i32 noundef 1, i32 noundef 9, ptr noundef nonnull %4, i32 noundef 50000, i32 noundef 0, i32 noundef %0)
  %17 = call ptr @Gia_ManMiter(ptr noundef %9, ptr noundef %16, i32 noundef 0, i32 noundef 1, i32 noundef 0, i32 noundef 0, i32 noundef 1) #29
  %18 = call i32 @Cec_ManVerify(ptr noundef %17, ptr noundef nonnull %3) #29
  call void @Gia_ManStop(ptr noundef %17) #29
  call void @Gia_ManStop(ptr noundef %9) #29
  call void @Gia_ManStop(ptr noundef %10) #29
  call void @Gia_ManStop(ptr noundef %13) #29
  call void @Gia_ManStop(ptr noundef %16) #29
  call void @llvm.lifetime.end.p0(i64 16, ptr nonnull %4) #29
  call void @llvm.lifetime.end.p0(i64 36, ptr nonnull %3) #29
  call void @llvm.lifetime.end.p0(i64 32, ptr nonnull %2) #29
  ret void
}